; ModuleID = 'bench/boost/original/time_zone.ll'
source_filename = "bench/boost/original/time_zone.ll"
target datalayout = "e-m:e-p270:32:32-p271:32:32-p272:64:64-i64:64-i128:128-f80:128-n8:16:32:64-S128"
target triple = "x86_64-pc-linux-gnu"

%"class.icu_70::UnicodeString" = type { %"class.icu_70::Replaceable", %"union.icu_70::UnicodeString::StackBufferOrFields" }
%"class.icu_70::Replaceable" = type { %"class.icu_70::UObject" }
%"class.icu_70::UObject" = type { ptr }
%"union.icu_70::UnicodeString::StackBufferOrFields" = type { %struct.anon.0, [32 x i8] }
%struct.anon.0 = type { i16, i32, i32, ptr }

; Function Attrs: mustprogress uwtable
define hidden noundef ptr @_ZN5boost6locale8impl_icu13get_time_zoneERKNSt7__cxx1112basic_stringIcSt11char_traitsIcESaIcEEE(ptr nocapture noundef nonnull readonly align 8 dereferenceable(32) %0) local_unnamed_addr #0 personality ptr @__gxx_personality_v0 {
  %2 = alloca %"class.icu_70::UnicodeString", align 8
  %3 = getelementptr inbounds nuw i8, ptr %0, i64 8
  %4 = load i64, ptr %3, align 8, !tbaa !3
  %5 = icmp eq i64 %4, 0
  br i1 %5, label %6, label %8

6:                                                ; preds = %1
  %7 = tail call noundef ptr @_ZN6icu_708TimeZone13createDefaultEv()
  br label %14

8:                                                ; preds = %1
  call void @llvm.lifetime.start.p0(i64 64, ptr nonnull %2) #4
  %9 = load ptr, ptr %0, align 8, !tbaa !10
  call void @_ZN6icu_7013UnicodeStringC1EPKc(ptr noundef nonnull align 8 dereferenceable(64) %2, ptr noundef %9)
  %10 = invoke noundef ptr @_ZN6icu_708TimeZone14createTimeZoneERKNS_13UnicodeStringE(ptr noundef nonnull align 8 dereferenceable(64) %2)
          to label %11 unwind label %12

11:                                               ; preds = %8
  call void @_ZN6icu_7013UnicodeStringD1Ev(ptr noundef nonnull align 8 dereferenceable(64) %2) #4
  call void @llvm.lifetime.end.p0(i64 64, ptr nonnull %2) #4
  br label %14

12:                                               ; preds = %8
  %13 = landingpad { ptr, i32 }
          cleanup
  call void @_ZN6icu_7013UnicodeStringD1Ev(ptr noundef nonnull align 8 dereferenceable(64) %2) #4
  call void @llvm.lifetime.end.p0(i64 64, ptr nonnull %2) #4
  resume { ptr, i32 } %13

14:                                               ; preds = %11, %6
  %.0 = phi ptr [ %7, %6 ], [ %10, %11 ]
  ret ptr %.0
}

declare noundef ptr @_ZN6icu_708TimeZone13createDefaultEv() local_unnamed_addr #1

declare noundef ptr @_ZN6icu_708TimeZone14createTimeZoneERKNS_13UnicodeStringE(ptr noundef nonnull align 8 dereferenceable(64)) local_unnamed_addr #1

; Function Attrs: mustprogress nocallback nofree nosync nounwind willreturn memory(argmem: readwrite)
declare void @llvm.lifetime.start.p0(i64 immarg, ptr nocapture) #2

declare void @_ZN6icu_7013UnicodeStringC1EPKc(ptr noundef nonnull align 8 dereferenceable(64), ptr noundef) unnamed_addr #1

declare i32 @__gxx_personality_v0(...)

; Function Attrs: nounwind
declare void @_ZN6icu_7013UnicodeStringD1Ev(ptr noundef nonnull align 8 dereferenceable(64)) unnamed_addr #3

; Function Attrs: mustprogress nocallback nofree nosync nounwind willreturn memory(argmem: readwrite)
declare void @llvm.lifetime.end.p0(i64 immarg, ptr nocapture) #2


!llvm.module.flags = !{!0, !1, !2}

!0 = !{i32 1, !"wchar_size", i32 4}
!1 = !{i32 8, !"PIC Level", i32 2}
!2 = !{i32 7, !"uwtable", i32 2}
!3 = !{!4, !9, i64 8}
!4 = !{!"_ZTSNSt7__cxx1112basic_stringIcSt11char_traitsIcESaIcEEE", !5, i64 0, !9, i64 8, !7, i64 16}
!5 = !{!"_ZTSNSt7__cxx1112basic_stringIcSt11char_traitsIcESaIcEE12_Alloc_hiderE", !6, i64 0}
!6 = !{!"any pointer", !7, i64 0}
!7 = !{!"omnipotent char", !8, i64 0}
!8 = !{!"Simple C++ TBAA"}
!9 = !{!"long", !7, i64 0}
!10 = !{!4, !6, i64 0}
